; Function Attrs: null_pointer_is_valid sspstrong uwtable
define internal noundef i32 @dissect_data_get_state_reply(ptr noundef %0, i32 noundef %1, ptr noundef %2, ptr noundef %3, i32 %4) #0 {
  %6 = load i32, ptr @hf_ndmp_state_invalid, align 4
  %7 = load i32, ptr @ett_ndmp_state_invalids, align 4
  %8 = tail call ptr @proto_tree_add_bitmask(ptr noundef %3, ptr noundef %0, i32 noundef %1, i32 noundef %6, i32 noundef %7, ptr noundef nonnull @dissect_state_invalids.invalid_states, i32 noundef 0)
  %9 = add i32 %1, 4
  %10 = tail call i32 @tvb_get_ntohl(ptr noundef %0, i32 noundef %9)
  %11 = load i32, ptr @hf_ndmp_error, align 4
  %12 = tail call ptr @proto_tree_add_item(ptr noundef %3, i32 noundef %11, ptr noundef %0, i32 noundef %9, i32 noundef 4, i32 noundef 0)
  %.not.i = icmp eq i32 %10, 0
  br i1 %.not.i, label %dissect_error.exit, label %13

13:                                               ; preds = %5
  %14 = getelementptr inbounds nuw i8, ptr %2, i64 8
  %15 = load ptr, ptr %14, align 8
  %16 = tail call ptr @val_to_str(i32 noundef %10, ptr noundef nonnull @error_vals, ptr noundef nonnull @.str.750)
  tail call void (ptr, i32, ptr, ...) @col_append_fstr(ptr noundef %15, i32 noundef 25, ptr noundef nonnull @.str.749, ptr noundef %16)
  br label %dissect_error.exit

dissect_error.exit:                               ; preds = %5, %13
  %17 = add i32 %1, 8
  %18 = load i32, ptr @hf_ndmp_bu_operation, align 4
  %19 = tail call ptr @proto_tree_add_item(ptr noundef %3, i32 noundef %18, ptr noundef %0, i32 noundef %17, i32 noundef 4, i32 noundef 0)
  %20 = add i32 %1, 12
  %21 = load i32, ptr @hf_ndmp_data_state, align 4
  %22 = tail call ptr @proto_tree_add_item(ptr noundef %3, i32 noundef %21, ptr noundef %0, i32 noundef %20, i32 noundef 4, i32 noundef 0)
  %23 = add i32 %1, 16
  %24 = load i32, ptr @hf_ndmp_data_halted, align 4
  %25 = tail call ptr @proto_tree_add_item(ptr noundef %3, i32 noundef %24, ptr noundef %0, i32 noundef %23, i32 noundef 4, i32 noundef 0)
  %26 = add i32 %1, 20
  %27 = load i32, ptr @hf_ndmp_data_bytes_processed, align 4
  %28 = tail call i32 @dissect_rpc_uint64(ptr noundef %0, ptr noundef %3, i32 noundef %27, i32 noundef %26)
  %29 = load i32, ptr @hf_ndmp_data_est_bytes_remain, align 4
  %30 = tail call i32 @dissect_rpc_uint64(ptr noundef %0, ptr noundef %3, i32 noundef %29, i32 noundef %28)
  %31 = load i32, ptr @hf_ndmp_data_est_time_remain, align 4
  %32 = tail call ptr @proto_tree_add_item(ptr noundef %3, i32 noundef %31, ptr noundef %0, i32 noundef %30, i32 noundef 4, i32 noundef 18)
  %33 = add i32 %30, 4
  %34 = tail call fastcc i32 @dissect_ndmp_addr(ptr noundef %0, i32 noundef %33, ptr noundef %2, ptr noundef %3)
  %35 = load i32, ptr @hf_ndmp_window_offset, align 4
  %36 = tail call ptr @proto_tree_add_item(ptr noundef %3, i32 noundef %35, ptr noundef %0, i32 noundef %34, i32 noundef 8, i32 noundef 0)
  %37 = add i32 %34, 8
  %38 = load i32, ptr @hf_ndmp_window_length, align 4
  %39 = tail call ptr @proto_tree_add_item(ptr noundef %3, i32 noundef %38, ptr noundef %0, i32 noundef %37, i32 noundef 8, i32 noundef 0)
  %40 = add i32 %34, 16
  ret i32 %40
}